{
   <insert_a_suppression_name_here>
   Helgrind:Race
   fun:_ZN4node12_GLOBAL__N_1L20PlatformWorkerThreadEPv
   obj:/usr/libexec/valgrind/vgpreload_helgrind-amd64-linux.so
   fun:start_thread
   fun:clone
}
{
   <insert_a_suppression_name_here>
   Helgrind:Race
   fun:_ZN2v88internal10StackGuard16RequestInterruptENS1_13InterruptFlagE
   fun:_ZThn32_N2v88internal14CancelableTask3RunEv
   fun:_ZN4node12_GLOBAL__N_1L20PlatformWorkerThreadEPv
   ...
}
{
   <insert_a_suppression_name_here>
   Helgrind:Race
   fun:Builtins_BaselineOutOfLinePrologue
   ...
}
{
   <insert_a_suppression_name_here>
   Helgrind:Race
   fun:_ZN2v88internal18ArrayBufferSweeper*
   ...
}
{
   <insert_a_suppression_name_here>
   Helgrind:Race
   fun:_ZN2v88internal10StackGuard16RequestInterruptENS1_13InterruptFlagE
   fun:_ZThn32_N2v88internal14CancelableTask3RunEv
   fun:_ZN4node12_GLOBAL__N_1L20PlatformWorkerThreadEPv
   obj:/usr/libexec/valgrind/vgpreload_helgrind-amd64-linux.so
   fun:start_thread
   fun:clone
}
{
   <insert_a_suppression_name_here>
   Helgrind:Race
   ...
   fun:_ZN2v88internal17ConcurrentMarking3RunEPNS_11JobDelegateENS_4base7EnumSetINS0_13CodeFlushModeEiEEjb
   ...
}
{
   <insert_a_suppression_name_here>
   Helgrind:Race
   fun:_ZN2v88internal19SpaceWithLinearArea26AdvanceAllocationObserversEv
   fun:_ZN2v88internal8NewSpace15AllocateRawSlowEiNS0_19AllocationAlignmentENS0_16AllocationOriginE
   fun:_ZN2v88internal4Heap11AllocateRawEiNS0_14AllocationTypeENS0_16AllocationOriginENS0_19AllocationAlignmentE
   fun:_ZN2v88internal4Heap34AllocateRawWithRetryOrFailSlowPathEiNS0_14AllocationTypeENS0_16AllocationOriginENS0_19AllocationAlignmentE
   fun:_ZN2v88internal7Factory11AllocateRawEiNS0_14AllocationTypeENS0_19AllocationAlignmentE
   fun:_ZN2v88internal11FactoryBaseINS0_7FactoryEE26AllocateRawWithImmortalMapEiNS0_14AllocationTypeENS0_3MapENS0_19AllocationAlignmentE
   fun:_ZN2v88internal11FactoryBaseINS0_7FactoryEE19NewRawOneByteStringEiNS0_14AllocationTypeE
   fun:_ZN2v88internal6String11SlowFlattenEPNS0_7IsolateENS0_6HandleINS0_10ConsStringEEENS0_14AllocationTypeE
   fun:_ZN2v88internal24Runtime_StringCharCodeAtEiPmPNS0_7IsolateE
   fun:Builtins_CEntry_Return1_DontSaveFPRegs_ArgvOnStack_NoBuiltinExit
   obj:*
   obj:*
}
{
   <insert_a_suppression_name_here>
   Helgrind:Race
   ...
   fun:_ZN2v88internal18IncrementalMarking8Observer4StepEimm
   ...
}
{
   <insert_a_suppression_name_here>
   Helgrind:Race
   fun:_ZN2v88internal14MarkingBarrier7PublishEv.part.67
   fun:_ZN2v88internal14MarkingBarrier10PublishAllEPNS0_4HeapE
   fun:_ZN2v88internal18IncrementalMarking21FinalizeIncrementallyEv
   fun:_ZN2v88internal4Heap39FinalizeIncrementalMarkingIncrementallyENS0_23GarbageCollectionReasonE
   fun:_ZN2v88internal10StackGuard16HandleInterruptsEv
   fun:_ZN2v88internal18Runtime_StackGuardEiPmPNS0_7IsolateE
   fun:Builtins_CEntry_Return1_DontSaveFPRegs_ArgvOnStack_NoBuiltinExit
   obj:*
   obj:*
   obj:*
   obj:*
   obj:*
}
{
   <insert_a_suppression_name_here>
   Helgrind:Race
   fun:_ZN2v88internal14MarkingBarrier5WriteENS0_10HeapObjectENS0_18FullHeapObjectSlotES2_
   ...
}
{
   <insert_a_suppression_name_here>
   Helgrind:Race
   fun:_ZN2v88internal19SpaceWithLinearArea24PauseAllocationObserversEv
   ...
}
{
   <insert_a_suppression_name_here>
   Helgrind:Race
   fun:_ZN2v88internal20MarkCompactCollector7PrepareEv
   ...
}
{
   <insert_a_suppression_name_here>
   Helgrind:Race
   fun:_ZN2v88internal14MarkingBarrier7PublishEv.part.67
   fun:_ZN2v88internal14MarkingBarrier10PublishAllEPNS0_4HeapE
   fun:_ZN2v88internal20MarkCompactCollector15MarkLiveObjectsEv
   fun:_ZN2v88internal20MarkCompactCollector14CollectGarbageEv
   fun:_ZN2v88internal4Heap11MarkCompactEv
   fun:_ZN2v88internal4Heap24PerformGarbageCollectionENS0_16GarbageCollectorENS_15GCCallbackFlagsE.constprop.1307
   fun:_ZN2v88internal4Heap14CollectGarbageENS0_15AllocationSpaceENS0_23GarbageCollectionReasonENS_15GCCallbackFlagsE
   fun:_ZN2v88internal4Heap15HandleGCRequestEv
   fun:_ZN2v88internal10StackGuard16HandleInterruptsEv
   fun:_ZN2v88internal18Runtime_StackGuardEiPmPNS0_7IsolateE
   fun:Builtins_CEntry_Return1_DontSaveFPRegs_ArgvOnStack_NoBuiltinExit
   obj:*
}
{
   <insert_a_suppression_name_here>
   Helgrind:Race
   fun:_ZN2v88internal9Scavenger7ProcessEPNS_11JobDelegateE
   ...
}
{
   <insert_a_suppression_name_here>
   Helgrind:Race
   obj:/usr/libexec/valgrind/vgpreload_helgrind-amd64-linux.so
   obj:/usr/libexec/valgrind/vgpreload_helgrind-amd64-linux.so
   fun:_ZN2v88platform15DefaultJobStateD1Ev
   fun:_ZN2v88platform16DefaultJobHandle4JoinEv
   fun:_ZN2v88internal18ScavengerCollector14CollectGarbageEv
   fun:_ZN2v88internal4Heap8ScavengeEv
   fun:_ZN2v88internal4Heap24PerformGarbageCollectionENS0_16GarbageCollectorENS_15GCCallbackFlagsE.constprop.1307
   fun:_ZN2v88internal4Heap14CollectGarbageENS0_15AllocationSpaceENS0_23GarbageCollectionReasonENS_15GCCallbackFlagsE
   fun:_ZN2v88internal4Heap34AllocateRawWithRetryOrFailSlowPathEiNS0_14AllocationTypeENS0_16AllocationOriginENS0_19AllocationAlignmentE
   fun:_ZN2v88internal7Factory15NewFillerObjectEibNS0_14AllocationTypeENS0_16AllocationOriginE
   fun:_ZN2v88internal33Runtime_AllocateInYoungGenerationEiPmPNS0_7IsolateE
   fun:Builtins_CEntry_Return1_DontSaveFPRegs_ArgvOnStack_NoBuiltinExit
}
{
   <insert_a_suppression_name_here>
   Helgrind:Race
   fun:Builtins_InterpreterEntryTrampoline
   fun:Builtins_InterpreterEntryTrampoline
   fun:Builtins_InterpreterEntryTrampoline
   fun:Builtins_InterpreterEntryTrampoline
   fun:Builtins_InterpreterEntryTrampoline
   fun:Builtins_InterpreterEntryTrampoline
   fun:Builtins_JSEntryTrampoline
   fun:Builtins_JSEntry
   fun:_ZN2v88internal12_GLOBAL__N_16InvokeEPNS0_7IsolateERKNS1_12InvokeParamsE
   fun:_ZN2v88internal9Execution4CallEPNS0_7IsolateENS0_6HandleINS0_6ObjectEEES6_iPS6_
   fun:_ZN2v88Function4CallENS_5LocalINS_7ContextEEENS1_INS_5ValueEEEiPS5_
   fun:_ZN4node20InternalMakeCallbackEPNS_11EnvironmentEN2v85LocalINS2_6ObjectEEES5_NS3_INS2_8FunctionEEEiPNS3_INS2_5ValueEEENS_13async_contextE
}
{
   <insert_a_suppression_name_here>
   Helgrind:Race
   ...
   fun:_ZN2v88internal21IncrementalMarkingJob4Task11RunInternalEv
   ...
}
{
   <insert_a_suppression_name_here>
   Helgrind:Race
   fun:_ZN2v88internal17ConcurrentMarking16TotalMarkedBytesEv
   ...
}
{
   <insert_a_suppression_name_here>
   Helgrind:Race
   ...
   fun:_ZN2v88internal20MarkCompactCollector22ProcessMarkingWorklistILNS1_29MarkingWorklistProcessingModeE0EEESt4pairImmEm
   ...
}
# sample weird folly which I won't suppress yet
# {
   # <insert_a_suppression_name_here>
   # Helgrind:Race
   # fun:operator() # sometimes this is an atomic load or atomic store
   # fun:_ZN5folly6detail8function14FunctionTraitsIFvONS_3TryINS_4UnitEEEEE9callSmallIZNS0_8waitImplIS4_EEvRNS_6FutureIT_EEEUlRKS5_E_EEvRNS1_4DataES6_
   # fun:operator()
   # fun:_ZN5folly6detail4CoreINS_4UnitEE10doCallbackEv
   # fun:operator()
   # fun:_ZN5folly6detail3FSMINS0_5StateEE11updateStateIZNS0_4CoreINS_4UnitEE13maybeCallbackEvEUlvE_ZNS7_13maybeCallbackEvEUlvE0_EEbS2_S2_RKT_RKT0_
   # fun:_ZN5folly6detail4CoreINS_4UnitEE13maybeCallbackEv
   # fun:_ZN5folly6detail4CoreINS_4UnitEE9setResultEONS_3TryIS2_EE
   # fun:setTry
   # fun:_ZN5folly7PromiseINS_4UnitEE7setWithIZZNS_6FutureISt6vectorINS_3TryIS1_EESaIS7_EEE18thenImplementationIZNSA_4thenEvEUlvE_NS_6detail14callableResultIS9_SC_EELb0EJEEENSt9enable_ifIXntsrNT0_13ReturnsFutureE5valueENSH_6ReturnEE4typeEOT_NSD_9argResultIXT1_ESL_JDpT2_EEEENUlONS6_IS9_EEE_clESS_EUlvE_EEvSM_
   # fun:_ZZN5folly6FutureISt6vectorINS_3TryINS_4UnitEEESaIS4_EEE18thenImplementationIZNS7_4thenEvEUlvE_NS_6detail14callableResultIS6_S9_EELb0EJEEENSt9enable_ifIXntsrNT0_13ReturnsFutureE5valueENSE_6ReturnEE4typeEOT_NSA_9argResultIXT1_ESI_JDpT2_EEEENUlONS2_IS6_EEE_clESP_
   # fun:operator()
   # fun:_ZN5folly6detail4CoreISt6vectorINS_3TryINS_4UnitEEESaIS5_EEE10doCallbackEv
   # fun:operator()
   # fun:_ZN5folly6detail3FSMINS0_5StateEE11updateStateIZNS0_4CoreISt6vectorINS_3TryINS_4UnitEEESaIS9_EEE13maybeCallbackEvEUlvE_ZNSC_13maybeCallbackEvEUlvE0_EEbS2_S2_RKT_RKT0_
   # fun:_ZN5folly6detail4CoreISt6vectorINS_3TryINS_4UnitEEESaIS5_EEE13maybeCallbackEv
   # fun:_ZN5folly6detail4CoreISt6vectorINS_3TryINS_4UnitEEESaIS5_EEE9setResultEONS3_IS7_EE
   # fun:operator()
   # fun:_ZN5folly6detail4CoreISt6vectorINS_3TryINS_4UnitEEESaIS5_EEE10doCallbackEv
# }
# {
   # <insert_a_suppression_name_here>
   # Helgrind:Race
   # fun:detach
   # fun:_ZN5folly6FutureINS_4UnitEED2Ev
   # obj:*
   # fun:_ZN2v88internal12_GLOBAL__N_119HandleApiCallHelperILb0EEENS0_11MaybeHandleINS0_6ObjectEEEPNS0_7IsolateENS0_6HandleINS0_10HeapObjectEEESA_NS8_INS0_20FunctionTemplateInfoEEENS8_IS4_EENS0_16BuiltinArgumentsE
   # fun:_ZN2v88internal21Builtin_HandleApiCallEiPmPNS0_7IsolateE
   # fun:Builtins_CEntry_Return1_DontSaveFPRegs_ArgvOnStack_BuiltinExit
   # fun:Builtins_InterpreterEntryTrampoline
   # fun:Builtins_InterpreterEntryTrampoline
   # fun:Builtins_InterpreterEntryTrampoline
   # fun:Builtins_InterpreterEntryTrampoline
   # fun:Builtins_ArrayForEach
   # fun:Builtins_InterpreterEntryTrampoline
   # fun:Builtins_PromiseFulfillReactionJob
# }
# interesting curl related errors
# {
   # <insert_a_suppression_name_here>
   # Helgrind:Misc
   # obj:/usr/libexec/valgrind/vgpreload_helgrind-amd64-linux.so
   # fun:CRYPTO_THREAD_lock_free
   # fun:BIO_free
   # fun:PEM_read_bio_ex
   # fun:PEM_X509_INFO_read_bio
   # fun:X509_load_cert_crl_file.part.0
   # fun:by_file_ctrl
   # fun:X509_STORE_load_locations
   # fun:ossl_connect_common
   # fun:Curl_ssl_connect_nonblocking
   # fun:https_connecting
   # fun:Curl_http_connect
# }
# {
   # <insert_a_suppression_name_here>
   # Helgrind:Misc
   # obj:/usr/libexec/valgrind/vgpreload_helgrind-amd64-linux.so
   # fun:CRYPTO_THREAD_lock_free
   # fun:BIO_free_all
   # fun:SSL_free.part.27
   # fun:ossl_closeone
   # fun:ossl_close
   # fun:Curl_ssl_close
   # fun:Curl_disconnect
   # fun:Curl_conncache_close_all_connections
   # fun:curl_multi_cleanup
   # fun:bcvDispatchFree
   # fun:bcvfsContainerReleaseBcv
# }
{
   <insert_a_suppression_name_here>
   Helgrind:Race
   fun:_ZN2v88internal13FullEvacuator15RawEvacuatePageEPNS0_11MemoryChunkEPl
   ...
}
{
   <insert_a_suppression_name_here>
   Helgrind:Misc
   obj:*vgpreload_helgrind*
   fun:_ZN2v88internal13FullEvacuatorD0Ev
   ...
}
# want more info on this one since it involves signals so not suppressing
# {
   # <insert_a_suppression_name_here>
   # Helgrind:Race
   # fun:uv__signal_compare
   # fun:uv__signal_tree_s_RB_NFIND
   # fun:uv__signal_first_handle
   # fun:uv__signal_handler
   # obj:/usr/lib/x86_64-linux-gnu/libc.so.6
   # fun:epoll_wait
   # fun:uv__io_poll
   # fun:uv_run
   # fun:_ZZN4node23WorkerThreadsTaskRunner20DelayedTaskScheduler5StartEvENUlPvE_4_FUNES2_
   # obj:/usr/libexec/valgrind/vgpreload_helgrind-amd64-linux.so
   # fun:start_thread
   # fun:clone
# }
# {
   # <insert_a_suppression_name_here>
   # Helgrind:Race
   # fun:uv__signal_tree_s_RB_REMOVE
   # fun:uv__signal_stop.part.6
   # fun:uv__signal_stop
   # fun:uv_signal_stop
   # fun:uv_close
   # fun:_ZN4node17SyncProcessRunner12ExitCallbackEP12uv_process_sli
   # fun:uv__chld
   # fun:uv__signal_event
   # fun:uv__io_poll
   # fun:uv_run
   # fun:_ZN4node17SyncProcessRunner23TryInitializeAndRunLoopEN2v85LocalINS1_5ValueEEE
   # fun:_ZN4node17SyncProcessRunner5SpawnERKN2v820FunctionCallbackInfoINS1_5ValueEEE
   # fun:_ZN2v88internal12_GLOBAL__N_119HandleApiCallHelperILb0EEENS0_11MaybeHandleINS0_6ObjectEEEPNS0_7IsolateENS0_6HandleINS0_10HeapObjectEEESA_NS8_INS0_20FunctionTemplateInfoEEENS8_IS4_EENS0_16BuiltinArgumentsE
   # fun:_ZN2v88internal21Builtin_HandleApiCallEiPmPNS0_7IsolateE
# }
# {
   # <insert_a_suppression_name_here>
   # Helgrind:Race
   # fun:uv__signal_loop_cleanup
   # fun:uv__loop_close
   # fun:uv_loop_close
   # fun:uv_loop_close
   # fun:_ZN4node18CheckedUvLoopCloseEP9uv_loop_s
   # fun:_ZN4node17SyncProcessRunner25CloseHandlesAndDeleteLoopEv
   # fun:_ZN4node17SyncProcessRunner5SpawnERKN2v820FunctionCallbackInfoINS1_5ValueEEE
   # fun:_ZN2v88internal12_GLOBAL__N_119HandleApiCallHelperILb0EEENS0_11MaybeHandleINS0_6ObjectEEEPNS0_7IsolateENS0_6HandleINS0_10HeapObjectEEESA_NS8_INS0_20FunctionTemplateInfoEEENS8_IS4_EENS0_16BuiltinArgumentsE
   # fun:_ZN2v88internal21Builtin_HandleApiCallEiPmPNS0_7IsolateE
   # fun:Builtins_CEntry_Return1_DontSaveFPRegs_ArgvOnStack_BuiltinExit
   # fun:Builtins_InterpreterEntryTrampoline
   # fun:Builtins_InterpreterEntryTrampoline
   # obj:*
# }
{
   <insert_a_suppression_name_here>
   Helgrind:Race
   fun:_ZN2v88internal19SpaceWithLinearArea21AddAllocationObserverEPNS0_18AllocationObserverE
   ...
}
{
   <insert_a_suppression_name_here>
   Helgrind:Race
   fun:_ZN2v88internal8NewSpace26UpdateLinearAllocationAreaEm
   ...
}
# javascript builtin impl seeing a race
{
   <insert_a_suppression_name_here>
   Helgrind:Race
   fun:Builtins_StringPrototypeIndexOf
   obj:*
   fun:Builtins_ArrayFilter
   obj:*
   fun:Builtins_ArrayFilter
   fun:Builtins_InterpreterEntryTrampoline
   obj:*
   obj:*
   obj:*
   obj:*
   obj:*
   obj:*
}
# {
   # <insert_a_suppression_name_here>
   # Helgrind:Misc
   # obj:/usr/libexec/valgrind/vgpreload_helgrind-amd64-linux.so
   # fun:CRYPTO_THREAD_lock_free
   # fun:asn1_do_lock
   # fun:asn1_item_embed_free
   # fun:ASN1_item_free
   # fun:X509_OBJECT_free
   # fun:OPENSSL_sk_pop_free
   # fun:X509_STORE_free
   # fun:SSL_CTX_free.part.25
   # fun:ossl_closeone
   # fun:ossl_close
   # fun:Curl_ssl_close
# }
{
   <insert_a_suppression_name_here>
   Helgrind:Misc
   obj:*vgpreload_helgrind*
   fun:_ZN2v88internal18ScavengerCollector14CollectGarbageEv
   ...
}
{
   <insert_a_suppression_name_here>
   Helgrind:Race
   fun:_ZN2v88internal19SpaceWithLinearArea23MarkLabStartInitializedEv
   ...
}
{
   <insert_a_suppression_name_here>
   Helgrind:Race
   fun:_ZN2v88internal4Heap25PublishPendingAllocationsEv
   ...
}
{
   <insert_a_suppression_name_here>
   Helgrind:Race
   fun:_ZN2v88internal21JsonParseInternalizer15RecurseAndApplyENS0_6HandleINS0_10JSReceiverEEENS2_INS0_6StringEEE
   ...
}
{
   <insert_a_suppression_name_here>
   Helgrind:Race
   fun:Builtins_SetPrototypeHas
   obj:*
   obj:*
   obj:*
   obj:*
   obj:*
   obj:*
   fun:Builtins_ArrayForEach
   obj:*
   obj:*
   obj:*
   obj:*
}
{
   <insert_a_suppression_name_here>
   Helgrind:Race
   fun:detach
   fun:_ZN5folly6FutureINS_4UnitEED2Ev
   obj:*
   obj:*
}
{
   <insert_a_suppression_name_here>
   Helgrind:Race
   fun:_ZN2v88internal8WorklistISt4pairINS0_10HeapObjectEiELi256EE4PushEiS4_
   ...
}
{
   <insert_a_suppression_name_here>
   Helgrind:Race
   fun:_ZN2v88internal9Scavenger7ProcessEPNS_11JobDelegateE
   ...
}
{
   <insert_a_suppression_name_here>
   Helgrind:Race
   fun:_ZN2v88internal14MarkingBarrier7PublishEv.part.67
   ...
}
{
   <insert_a_suppression_name_here>
   Helgrind:Race
   fun:_ZN4node12_GLOBAL__N_1L20PlatformWorkerThreadEPv
   ...
}
{
   <insert_a_suppression_name_here>
   Helgrind:Race
   fun:_ZN2v88internal19SpaceWithLinearArea26AdvanceAllocationObserversEv
   ...
}
{
   <insert_a_suppression_name_here>
   Helgrind:Race
   fun:_ZN2v88internal10StackGuard16RequestInterruptENS1_13InterruptFlagE
   ...
}
